; Function Attrs: mustprogress nofree norecurse nosync nounwind willreturn memory(read, argmem: readwrite, inaccessiblemem: none) uwtable
define noundef i32 @H5F_shared_get_file_driver(ptr noundef readonly captures(none) %0, ptr noundef writeonly captures(none) %1) local_unnamed_addr #4 {
  %3 = load i8, ptr @H5F_init_g, align 1, !tbaa !84, !range !43, !noundef !44
  %4 = trunc nuw i8 %3 to i1
  %5 = load i8, ptr @H5_libterm_g, align 1, !range !43
  %6 = trunc nuw i8 %5 to i1
  %7 = xor i1 %6, true
  %8 = select i1 %4, i1 true, i1 %7
  br i1 %8, label %9, label %11, !prof !85

9:                                                ; preds = %2
  %10 = load ptr, ptr %0, align 8, !tbaa !79
  store ptr %10, ptr %1, align 8, !tbaa !87
  br label %11

11:                                               ; preds = %9, %2
  ret i32 0
}